; Function Attrs: nounwind uwtable
define ptr @l_Array_foldlMUnsafe_fold___at_Lean_Compiler_LCNF_LCtx_eraseAlts___spec__1(ptr noundef readonly captures(none) %0, i64 noundef %1, i64 noundef %2, ptr noundef %3) local_unnamed_addr #0 {
  %.not74 = icmp eq i64 %1, %2
  br i1 %.not74, label %._crit_edge, label %.lr.ph

.lr.ph:                                           ; preds = %4
  %5 = getelementptr inbounds nuw i8, ptr %0, i64 24
  br label %6

6:                                                ; preds = %.lr.ph, %lean_dec.exit39
  %.03176 = phi i64 [ %1, %.lr.ph ], [ %23, %lean_dec.exit39 ]
  %.03575 = phi ptr [ %3, %.lr.ph ], [ %.237, %lean_dec.exit39 ]
  %7 = getelementptr inbounds nuw [0 x ptr], ptr %5, i64 0, i64 %.03176
  %8 = load ptr, ptr %7, align 8, !tbaa !4
  %9 = ptrtoint ptr %8 to i64
  %10 = and i64 %9, 1
  %.not.i52 = icmp eq i64 %10, 0
  br i1 %.not.i52, label %11, label %17

11:                                               ; preds = %6
  %.val.i.i = load i32, ptr %8, align 4, !tbaa !8
  %12 = icmp sgt i32 %.val.i.i, 0
  br i1 %12, label %13, label %15, !prof !13

13:                                               ; preds = %11
  %14 = add nuw i32 %.val.i.i, 1
  store i32 %14, ptr %8, align 4, !tbaa !8
  br label %20

15:                                               ; preds = %11
  %.not.i.i = icmp eq i32 %.val.i.i, 0
  br i1 %.not.i.i, label %20, label %16

16:                                               ; preds = %15
  tail call void @lean_inc_ref_cold(ptr noundef nonnull %8) #3
  br label %20

17:                                               ; preds = %6
  %18 = lshr i64 %9, 1
  %19 = trunc i64 %18 to i32
  br label %lean_obj_tag.exit

20:                                               ; preds = %13, %15, %16
  %21 = getelementptr i8, ptr %8, i64 4
  %.val.i = load i32, ptr %21, align 4
  %22 = lshr i32 %.val.i, 24
  br label %lean_obj_tag.exit

lean_obj_tag.exit:                                ; preds = %17, %20
  %.0.i = phi i32 [ %19, %17 ], [ %22, %20 ]
  %23 = add i64 %.03176, 1
  %24 = icmp eq i32 %.0.i, 0
  br i1 %24, label %25, label %69

25:                                               ; preds = %lean_obj_tag.exit
  %26 = getelementptr inbounds nuw i8, ptr %8, i64 16
  %27 = load ptr, ptr %26, align 8, !tbaa !4
  %28 = ptrtoint ptr %27 to i64
  %29 = and i64 %28, 1
  %.not71 = icmp eq i64 %29, 0
  br i1 %.not71, label %30, label %lean_inc.exit43

30:                                               ; preds = %25
  %.val.i54 = load i32, ptr %27, align 4, !tbaa !8
  %31 = icmp sgt i32 %.val.i54, 0
  br i1 %31, label %32, label %34, !prof !13

32:                                               ; preds = %30
  %33 = add nuw i32 %.val.i54, 1
  store i32 %33, ptr %27, align 4, !tbaa !8
  br label %lean_inc.exit43

34:                                               ; preds = %30
  %.not.i55 = icmp eq i32 %.val.i54, 0
  br i1 %.not.i55, label %lean_inc.exit43, label %35

35:                                               ; preds = %34
  tail call void @lean_inc_ref_cold(ptr noundef nonnull %27) #3
  br label %lean_inc.exit43

lean_inc.exit43:                                  ; preds = %35, %34, %32, %25
  %36 = getelementptr inbounds nuw i8, ptr %8, i64 24
  %37 = load ptr, ptr %36, align 8, !tbaa !4
  %38 = ptrtoint ptr %37 to i64
  %39 = and i64 %38, 1
  %.not72 = icmp eq i64 %39, 0
  br i1 %.not72, label %40, label %lean_inc.exit42

40:                                               ; preds = %lean_inc.exit43
  %.val.i56 = load i32, ptr %37, align 4, !tbaa !8
  %41 = icmp sgt i32 %.val.i56, 0
  br i1 %41, label %42, label %44, !prof !13

42:                                               ; preds = %40
  %43 = add nuw i32 %.val.i56, 1
  store i32 %43, ptr %37, align 4, !tbaa !8
  br label %lean_inc.exit42

44:                                               ; preds = %40
  %.not.i57 = icmp eq i32 %.val.i56, 0
  br i1 %.not.i57, label %lean_inc.exit42, label %45

45:                                               ; preds = %44
  tail call void @lean_inc_ref_cold(ptr noundef nonnull %37) #3
  br label %lean_inc.exit42

lean_inc.exit42:                                  ; preds = %45, %44, %42, %lean_inc.exit43
  br i1 %.not.i52, label %46, label %lean_dec.exit41

46:                                               ; preds = %lean_inc.exit42
  %47 = load i32, ptr %8, align 4, !tbaa !8
  %48 = icmp sgt i32 %47, 1
  br i1 %48, label %49, label %51, !prof !13

49:                                               ; preds = %46
  %50 = add nsw i32 %47, -1
  store i32 %50, ptr %8, align 4, !tbaa !8
  br label %lean_dec.exit41

51:                                               ; preds = %46
  %.not.i = icmp eq i32 %47, 0
  br i1 %.not.i, label %lean_dec.exit41, label %52

52:                                               ; preds = %51
  tail call void @lean_dec_ref_cold(ptr noundef nonnull %8) #3
  br label %lean_dec.exit41

lean_dec.exit41:                                  ; preds = %52, %51, %49, %lean_inc.exit42
  %53 = tail call ptr @l_Lean_Compiler_LCNF_LCtx_eraseParams(ptr noundef %.03575, ptr noundef %27)
  br i1 %.not71, label %54, label %lean_dec.exit40

54:                                               ; preds = %lean_dec.exit41
  %55 = load i32, ptr %27, align 4, !tbaa !8
  %56 = icmp sgt i32 %55, 1
  br i1 %56, label %57, label %59, !prof !13

57:                                               ; preds = %54
  %58 = add nsw i32 %55, -1
  store i32 %58, ptr %27, align 4, !tbaa !8
  br label %lean_dec.exit40

59:                                               ; preds = %54
  %.not.i44 = icmp eq i32 %55, 0
  br i1 %.not.i44, label %lean_dec.exit40, label %60

60:                                               ; preds = %59
  tail call void @lean_dec_ref_cold(ptr noundef nonnull %27) #3
  br label %lean_dec.exit40

lean_dec.exit40:                                  ; preds = %60, %59, %57, %lean_dec.exit41
  %61 = tail call ptr @l_Lean_Compiler_LCNF_LCtx_eraseCode(ptr noundef %37, ptr noundef %53)
  br i1 %.not72, label %62, label %lean_dec.exit39

62:                                               ; preds = %lean_dec.exit40
  %63 = load i32, ptr %37, align 4, !tbaa !8
  %64 = icmp sgt i32 %63, 1
  br i1 %64, label %65, label %67, !prof !13

65:                                               ; preds = %62
  %66 = add nsw i32 %63, -1
  store i32 %66, ptr %37, align 4, !tbaa !8
  br label %lean_dec.exit39

67:                                               ; preds = %62
  %.not.i46 = icmp eq i32 %63, 0
  br i1 %.not.i46, label %lean_dec.exit39, label %68

68:                                               ; preds = %67
  tail call void @lean_dec_ref_cold(ptr noundef nonnull %37) #3
  br label %lean_dec.exit39

69:                                               ; preds = %lean_obj_tag.exit
  %70 = getelementptr inbounds nuw i8, ptr %8, i64 8
  %71 = load ptr, ptr %70, align 8, !tbaa !4
  %72 = ptrtoint ptr %71 to i64
  %73 = and i64 %72, 1
  %.not69 = icmp eq i64 %73, 0
  br i1 %.not69, label %74, label %lean_inc.exit

74:                                               ; preds = %69
  %.val.i59 = load i32, ptr %71, align 4, !tbaa !8
  %75 = icmp sgt i32 %.val.i59, 0
  br i1 %75, label %76, label %78, !prof !13

76:                                               ; preds = %74
  %77 = add nuw i32 %.val.i59, 1
  store i32 %77, ptr %71, align 4, !tbaa !8
  br label %lean_inc.exit

78:                                               ; preds = %74
  %.not.i60 = icmp eq i32 %.val.i59, 0
  br i1 %.not.i60, label %lean_inc.exit, label %79

79:                                               ; preds = %78
  tail call void @lean_inc_ref_cold(ptr noundef nonnull %71) #3
  br label %lean_inc.exit

lean_inc.exit:                                    ; preds = %79, %78, %76, %69
  br i1 %.not.i52, label %80, label %lean_dec.exit38

80:                                               ; preds = %lean_inc.exit
  %81 = load i32, ptr %8, align 4, !tbaa !8
  %82 = icmp sgt i32 %81, 1
  br i1 %82, label %83, label %85, !prof !13

83:                                               ; preds = %80
  %84 = add nsw i32 %81, -1
  store i32 %84, ptr %8, align 4, !tbaa !8
  br label %lean_dec.exit38

85:                                               ; preds = %80
  %.not.i48 = icmp eq i32 %81, 0
  br i1 %.not.i48, label %lean_dec.exit38, label %86

86:                                               ; preds = %85
  tail call void @lean_dec_ref_cold(ptr noundef nonnull %8) #3
  br label %lean_dec.exit38

lean_dec.exit38:                                  ; preds = %86, %85, %83, %lean_inc.exit
  %87 = tail call ptr @l_Lean_Compiler_LCNF_LCtx_eraseCode(ptr noundef %71, ptr noundef %.03575)
  br i1 %.not69, label %88, label %lean_dec.exit39

88:                                               ; preds = %lean_dec.exit38
  %89 = load i32, ptr %71, align 4, !tbaa !8
  %90 = icmp sgt i32 %89, 1
  br i1 %90, label %91, label %93, !prof !13

91:                                               ; preds = %88
  %92 = add nsw i32 %89, -1
  store i32 %92, ptr %71, align 4, !tbaa !8
  br label %lean_dec.exit39

93:                                               ; preds = %88
  %.not.i50 = icmp eq i32 %89, 0
  br i1 %.not.i50, label %lean_dec.exit39, label %94

94:                                               ; preds = %93
  tail call void @lean_dec_ref_cold(ptr noundef nonnull %71) #3
  br label %lean_dec.exit39

lean_dec.exit39:                                  ; preds = %lean_dec.exit38, %91, %93, %94, %lean_dec.exit40, %65, %67, %68
  %.237 = phi ptr [ %61, %68 ], [ %61, %67 ], [ %61, %65 ], [ %61, %lean_dec.exit40 ], [ %87, %94 ], [ %87, %93 ], [ %87, %91 ], [ %87, %lean_dec.exit38 ]
  %.not = icmp eq i64 %23, %2
  br i1 %.not, label %._crit_edge, label %6

._crit_edge:                                      ; preds = %lean_dec.exit39, %4
  %.035.lcssa = phi ptr [ %3, %4 ], [ %.237, %lean_dec.exit39 ]
  ret ptr %.035.lcssa
}